target datalayout = "e-m:e-p270:32:32-p271:32:32-p272:64:64-i64:64-i128:128-f80:128-n8:16:32:64-S128"
target triple = "x86_64-pc-linux-gnu"

%struct.cgltf_memory_options = type { ptr, ptr, ptr }
%struct.cgltf_file_options = type { ptr, ptr, ptr }
%struct.cgltf_data = type { i32, ptr, %struct.cgltf_asset, ptr, i64, ptr, i64, ptr, i64, ptr, i64, ptr, i64, ptr, i64, ptr, i64, ptr, i64, ptr, i64, ptr, i64, ptr, i64, ptr, i64, ptr, i64, ptr, ptr, i64, ptr, i64, %struct.cgltf_extras, i64, ptr, ptr, i64, ptr, i64, ptr, i64, ptr, i64, %struct.cgltf_memory_options, %struct.cgltf_file_options }
%struct.cgltf_asset = type { ptr, ptr, ptr, ptr, %struct.cgltf_extras, i64, ptr }
%struct.cgltf_extras = type { i64, i64, ptr }

; Function Attrs: nounwind uwtable
define hidden i64 @cgltf_camera_index(ptr noundef %0, ptr noundef %1) #0 {
  %3 = alloca ptr, align 8
  %4 = alloca ptr, align 8
  store ptr %0, ptr %3, align 8
  store ptr %1, ptr %4, align 8
  %5 = load ptr, ptr %4, align 8
  %6 = load ptr, ptr %3, align 8
  %7 = getelementptr inbounds nuw %struct.cgltf_data, ptr %6, i32 0, i32 21
  %8 = load ptr, ptr %7, align 8
  %9 = ptrtoint ptr %5 to i64
  %10 = ptrtoint ptr %8 to i64
  %11 = sub i64 %9, %10
  %12 = sdiv exact i64 %11, 104
  ret i64 %12
}