; Function Attrs: mustprogress nofree norecurse nosync nounwind willreturn memory(argmem: read) uwtable
define hidden range(i64 -88686269585142075, 88686269585142076) i64 @cgltf_camera_index(ptr noundef readonly captures(none) %0, ptr noundef %1) local_unnamed_addr #24 {
  %3 = getelementptr inbounds nuw i8, ptr %0, i64 232
  %4 = load ptr, ptr %3, align 8
  %5 = ptrtoint ptr %1 to i64
  %6 = ptrtoint ptr %4 to i64
  %7 = sub i64 %5, %6
  %8 = sdiv exact i64 %7, 104
  ret i64 %8
}